target datalayout = "e-m:e-p270:32:32-p271:32:32-p272:64:64-i64:64-i128:128-f80:128-n8:16:32:64-S128"
target triple = "x86_64-pc-linux-gnu"

; Function Attrs: inlinehint nounwind sspstrong uwtable
define internal i32 @rb_memsearch_qs_utf8_hash(ptr noundef %0) #3 {
  %2 = alloca i32, align 4
  %3 = alloca ptr, align 8
  %4 = alloca i32, align 4
  %5 = alloca i32, align 4
  %6 = alloca i32, align 4
  store ptr %0, ptr %3, align 8, !tbaa !13
  call void @llvm.lifetime.start.p0(i64 4, ptr %4) #28
  store i32 8353, ptr %4, align 4, !tbaa !16
  call void @llvm.lifetime.start.p0(i64 4, ptr %5) #28
  %7 = load ptr, ptr %3, align 8, !tbaa !13
  %8 = load i8, ptr %7, align 1, !tbaa !15
  %9 = zext i8 %8 to i32
  store i32 %9, ptr %5, align 4, !tbaa !16
  %10 = load i32, ptr %5, align 4, !tbaa !16
  %11 = icmp ult i32 %10, 192
  br i1 %11, label %12, label %15

12:                                               ; preds = %1
  %13 = load i32, ptr %5, align 4, !tbaa !16
  %14 = add i32 %13, 256
  store i32 %14, ptr %2, align 4
  store i32 1, ptr %6, align 4
  br label %85

15:                                               ; preds = %1
  %16 = load i32, ptr %5, align 4, !tbaa !16
  %17 = icmp ult i32 %16, 224
  br i1 %17, label %18, label %27

18:                                               ; preds = %15
  %19 = load i32, ptr %5, align 4, !tbaa !16
  %20 = mul i32 %19, 8353
  store i32 %20, ptr %5, align 4, !tbaa !16
  %21 = load ptr, ptr %3, align 8, !tbaa !13
  %22 = getelementptr i8, ptr %21, i64 1
  %23 = load i8, ptr %22, align 1, !tbaa !15
  %24 = zext i8 %23 to i32
  %25 = load i32, ptr %5, align 4, !tbaa !16
  %26 = add i32 %25, %24
  store i32 %26, ptr %5, align 4, !tbaa !16
  br label %80

27:                                               ; preds = %15
  %28 = load i32, ptr %5, align 4, !tbaa !16
  %29 = icmp ult i32 %28, 240
  br i1 %29, label %30, label %47

30:                                               ; preds = %27
  %31 = load i32, ptr %5, align 4, !tbaa !16
  %32 = mul i32 %31, 8353
  store i32 %32, ptr %5, align 4, !tbaa !16
  %33 = load ptr, ptr %3, align 8, !tbaa !13
  %34 = getelementptr i8, ptr %33, i64 1
  %35 = load i8, ptr %34, align 1, !tbaa !15
  %36 = zext i8 %35 to i32
  %37 = load i32, ptr %5, align 4, !tbaa !16
  %38 = add i32 %37, %36
  store i32 %38, ptr %5, align 4, !tbaa !16
  %39 = load i32, ptr %5, align 4, !tbaa !16
  %40 = mul i32 %39, 8353
  store i32 %40, ptr %5, align 4, !tbaa !16
  %41 = load ptr, ptr %3, align 8, !tbaa !13
  %42 = getelementptr i8, ptr %41, i64 2
  %43 = load i8, ptr %42, align 1, !tbaa !15
  %44 = zext i8 %43 to i32
  %45 = load i32, ptr %5, align 4, !tbaa !16
  %46 = add i32 %45, %44
  store i32 %46, ptr %5, align 4, !tbaa !16
  br label %79

47:                                               ; preds = %27
  %48 = load i32, ptr %5, align 4, !tbaa !16
  %49 = icmp ult i32 %48, 245
  br i1 %49, label %50, label %75

50:                                               ; preds = %47
  %51 = load i32, ptr %5, align 4, !tbaa !16
  %52 = mul i32 %51, 8353
  store i32 %52, ptr %5, align 4, !tbaa !16
  %53 = load ptr, ptr %3, align 8, !tbaa !13
  %54 = getelementptr i8, ptr %53, i64 1
  %55 = load i8, ptr %54, align 1, !tbaa !15
  %56 = zext i8 %55 to i32
  %57 = load i32, ptr %5, align 4, !tbaa !16
  %58 = add i32 %57, %56
  store i32 %58, ptr %5, align 4, !tbaa !16
  %59 = load i32, ptr %5, align 4, !tbaa !16
  %60 = mul i32 %59, 8353
  store i32 %60, ptr %5, align 4, !tbaa !16
  %61 = load ptr, ptr %3, align 8, !tbaa !13
  %62 = getelementptr i8, ptr %61, i64 2
  %63 = load i8, ptr %62, align 1, !tbaa !15
  %64 = zext i8 %63 to i32
  %65 = load i32, ptr %5, align 4, !tbaa !16
  %66 = add i32 %65, %64
  store i32 %66, ptr %5, align 4, !tbaa !16
  %67 = load i32, ptr %5, align 4, !tbaa !16
  %68 = mul i32 %67, 8353
  store i32 %68, ptr %5, align 4, !tbaa !16
  %69 = load ptr, ptr %3, align 8, !tbaa !13
  %70 = getelementptr i8, ptr %69, i64 3
  %71 = load i8, ptr %70, align 1, !tbaa !15
  %72 = zext i8 %71 to i32
  %73 = load i32, ptr %5, align 4, !tbaa !16
  %74 = add i32 %73, %72
  store i32 %74, ptr %5, align 4, !tbaa !16
  br label %78

75:                                               ; preds = %47
  %76 = load i32, ptr %5, align 4, !tbaa !16
  %77 = add i32 %76, 256
  store i32 %77, ptr %2, align 4
  store i32 1, ptr %6, align 4
  br label %85

78:                                               ; preds = %50
  br label %79

79:                                               ; preds = %78, %30
  br label %80

80:                                               ; preds = %79, %18
  br label %81

81:                                               ; preds = %80
  %82 = load i32, ptr %5, align 4, !tbaa !16
  %83 = trunc i32 %82 to i8
  %84 = zext i8 %83 to i32
  store i32 %84, ptr %2, align 4
  store i32 1, ptr %6, align 4
  br label %85

85:                                               ; preds = %81, %75, %12
  call void @llvm.lifetime.end.p0(i64 4, ptr %5) #28
  call void @llvm.lifetime.end.p0(i64 4, ptr %4) #28
  %86 = load i32, ptr %2, align 4
  ret i32 %86
}

; Function Attrs: inlinehint nounwind sspstrong uwtable
define internal i64 @rb_memsearch_qs_utf8(ptr noundef %0, i64 noundef %1, ptr noundef %2, i64 noundef %3) #3 {
  %5 = alloca i64, align 8
  %6 = alloca ptr, align 8
  %7 = alloca i64, align 8
  %8 = alloca ptr, align 8
  %9 = alloca i64, align 8
  %10 = alloca ptr, align 8
  %11 = alloca ptr, align 8
  %12 = alloca ptr, align 8
  %13 = alloca i64, align 8
  %14 = alloca [512 x i64], align 16
  %15 = alloca i32, align 4
  store ptr %0, ptr %6, align 8, !tbaa !13
  store i64 %1, ptr %7, align 8, !tbaa !11
  store ptr %2, ptr %8, align 8, !tbaa !13
  store i64 %3, ptr %9, align 8, !tbaa !11
  call void @llvm.lifetime.start.p0(i64 8, ptr %10) #28
  %16 = load ptr, ptr %6, align 8, !tbaa !13
  store ptr %16, ptr %10, align 8, !tbaa !13
  call void @llvm.lifetime.start.p0(i64 8, ptr %11) #28
  %17 = load ptr, ptr %6, align 8, !tbaa !13
  %18 = load i64, ptr %7, align 8, !tbaa !11
  %19 = getelementptr i8, ptr %17, i64 %18
  store ptr %19, ptr %11, align 8, !tbaa !13
  call void @llvm.lifetime.start.p0(i64 8, ptr %12) #28
  %20 = load ptr, ptr %8, align 8, !tbaa !13
  store ptr %20, ptr %12, align 8, !tbaa !13
  call void @llvm.lifetime.start.p0(i64 8, ptr %13) #28
  call void @llvm.lifetime.start.p0(i64 4096, ptr %14) #28
  store i64 0, ptr %13, align 8, !tbaa !11
  br label %21

21:                                               ; preds = %29, %4
  %22 = load i64, ptr %13, align 8, !tbaa !11
  %23 = icmp ult i64 %22, 512
  br i1 %23, label %24, label %32

24:                                               ; preds = %21
  %25 = load i64, ptr %7, align 8, !tbaa !11
  %26 = add i64 %25, 1
  %27 = load i64, ptr %13, align 8, !tbaa !11
  %28 = getelementptr [512 x i64], ptr %14, i64 0, i64 %27
  store i64 %26, ptr %28, align 8, !tbaa !11
  br label %29

29:                                               ; preds = %24
  %30 = load i64, ptr %13, align 8, !tbaa !11
  %31 = add i64 %30, 1
  store i64 %31, ptr %13, align 8, !tbaa !11
  br label %21, !llvm.loop !24

32:                                               ; preds = %21
  br label %33

33:                                               ; preds = %47, %32
  %34 = load ptr, ptr %10, align 8, !tbaa !13
  %35 = load ptr, ptr %11, align 8, !tbaa !13
  %36 = icmp ult ptr %34, %35
  br i1 %36, label %37, label %50

37:                                               ; preds = %33
  %38 = load ptr, ptr %11, align 8, !tbaa !13
  %39 = load ptr, ptr %10, align 8, !tbaa !13
  %40 = ptrtoint ptr %38 to i64
  %41 = ptrtoint ptr %39 to i64
  %42 = sub i64 %40, %41
  %43 = load ptr, ptr %10, align 8, !tbaa !13
  %44 = call i32 @rb_memsearch_qs_utf8_hash(ptr noundef %43)
  %45 = zext i32 %44 to i64
  %46 = getelementptr [512 x i64], ptr %14, i64 0, i64 %45
  store i64 %42, ptr %46, align 8, !tbaa !11
  br label %47

47:                                               ; preds = %37
  %48 = load ptr, ptr %10, align 8, !tbaa !13
  %49 = getelementptr i8, ptr %48, i32 1
  store ptr %49, ptr %10, align 8, !tbaa !13
  br label %33, !llvm.loop !25

50:                                               ; preds = %33
  br label %51

51:                                               ; preds = %80, %50
  %52 = load ptr, ptr %12, align 8, !tbaa !13
  %53 = load i64, ptr %7, align 8, !tbaa !11
  %54 = getelementptr i8, ptr %52, i64 %53
  %55 = load ptr, ptr %8, align 8, !tbaa !13
  %56 = load i64, ptr %9, align 8, !tbaa !11
  %57 = getelementptr i8, ptr %55, i64 %56
  %58 = icmp ule ptr %54, %57
  br i1 %58, label %59, label %90

59:                                               ; preds = %51
  %60 = load ptr, ptr %6, align 8, !tbaa !13
  %61 = load i8, ptr %60, align 1, !tbaa !15
  %62 = zext i8 %61 to i32
  %63 = load ptr, ptr %12, align 8, !tbaa !13
  %64 = load i8, ptr %63, align 1, !tbaa !15
  %65 = zext i8 %64 to i32
  %66 = icmp eq i32 %62, %65
  br i1 %66, label %67, label %79

67:                                               ; preds = %59
  %68 = load ptr, ptr %6, align 8, !tbaa !13
  %69 = load ptr, ptr %12, align 8, !tbaa !13
  %70 = load i64, ptr %7, align 8, !tbaa !11
  %71 = call i32 @memcmp(ptr noundef %68, ptr noundef %69, i64 noundef %70) #29
  %72 = icmp eq i32 %71, 0
  br i1 %72, label %73, label %79

73:                                               ; preds = %67
  %74 = load ptr, ptr %12, align 8, !tbaa !13
  %75 = load ptr, ptr %8, align 8, !tbaa !13
  %76 = ptrtoint ptr %74 to i64
  %77 = ptrtoint ptr %75 to i64
  %78 = sub i64 %76, %77
  store i64 %78, ptr %5, align 8
  store i32 1, ptr %15, align 4
  br label %91

79:                                               ; preds = %67, %59
  br label %80

80:                                               ; preds = %79
  %81 = load ptr, ptr %12, align 8, !tbaa !13
  %82 = load i64, ptr %7, align 8, !tbaa !11
  %83 = getelementptr i8, ptr %81, i64 %82
  %84 = call i32 @rb_memsearch_qs_utf8_hash(ptr noundef %83)
  %85 = zext i32 %84 to i64
  %86 = getelementptr [512 x i64], ptr %14, i64 0, i64 %85
  %87 = load i64, ptr %86, align 8, !tbaa !11
  %88 = load ptr, ptr %12, align 8, !tbaa !13
  %89 = getelementptr i8, ptr %88, i64 %87
  store ptr %89, ptr %12, align 8, !tbaa !13
  br label %51, !llvm.loop !26

90:                                               ; preds = %51
  store i64 -1, ptr %5, align 8
  store i32 1, ptr %15, align 4
  br label %91

91:                                               ; preds = %90, %73
  call void @llvm.lifetime.end.p0(i64 4096, ptr %14) #28
  call void @llvm.lifetime.end.p0(i64 8, ptr %13) #28
  call void @llvm.lifetime.end.p0(i64 8, ptr %12) #28
  call void @llvm.lifetime.end.p0(i64 8, ptr %11) #28
  call void @llvm.lifetime.end.p0(i64 8, ptr %10) #28
  %92 = load i64, ptr %5, align 8
  ret i64 %92
}