; Function Attrs: inlinehint nofree nounwind sspstrong memory(argmem: read) uwtable
define internal fastcc noundef i64 @rb_memsearch_qs_utf8(ptr noundef nonnull %0, i64 noundef range(i64 9, -9223372036854775808) %1, ptr noundef nonnull %2, i64 noundef %3) unnamed_addr #5 {
  %5 = alloca [512 x i64], align 16
  call void @llvm.lifetime.start.p0(i64 4096, ptr nonnull %5) #29
  %6 = add nuw i64 %1, 1
  br label %10

.preheader36:                                     ; preds = %10
  %7 = getelementptr i8, ptr %0, i64 %1
  %8 = icmp ult ptr %0, %7
  br i1 %8, label %.lr.ph, label %.preheader

.lr.ph:                                           ; preds = %.preheader36
  %9 = ptrtoint ptr %7 to i64
  br label %16

10:                                               ; preds = %4, %10
  %.038 = phi i64 [ 0, %4 ], [ %12, %10 ]
  %11 = getelementptr [512 x i64], ptr %5, i64 0, i64 %.038
  store i64 %6, ptr %11, align 8, !tbaa !18
  %12 = add nuw nsw i64 %.038, 1
  %exitcond.not = icmp eq i64 %12, 512
  br i1 %exitcond.not, label %.preheader36, label %10, !llvm.loop !23

.preheader:                                       ; preds = %rb_memsearch_qs_utf8_hash.exit, %.preheader36
  %13 = getelementptr i8, ptr %2, i64 %3
  %14 = getelementptr i8, ptr %2, i64 %1
  %.not41 = icmp ugt ptr %14, %13
  br i1 %.not41, label %.loopexit, label %.lr.ph43

.lr.ph43:                                         ; preds = %.preheader
  %15 = load i8, ptr %0, align 1, !tbaa !7
  br label %64

16:                                               ; preds = %.lr.ph, %rb_memsearch_qs_utf8_hash.exit
  %.03039 = phi ptr [ %0, %.lr.ph ], [ %63, %rb_memsearch_qs_utf8_hash.exit ]
  %17 = ptrtoint ptr %.03039 to i64
  %18 = sub i64 %9, %17
  %19 = load i8, ptr %.03039, align 1, !tbaa !7
  %20 = zext i8 %19 to i32
  %21 = icmp ult i8 %19, -64
  br i1 %21, label %22, label %24

22:                                               ; preds = %16
  %23 = or disjoint i32 %20, 256
  br label %rb_memsearch_qs_utf8_hash.exit

24:                                               ; preds = %16
  %25 = icmp samesign ult i8 %19, -32
  br i1 %25, label %26, label %31

26:                                               ; preds = %24
  %27 = mul i8 %19, -95
  %28 = getelementptr i8, ptr %.03039, i64 1
  %29 = load i8, ptr %28, align 1, !tbaa !7
  %30 = add i8 %29, %27
  br label %59

31:                                               ; preds = %24
  %32 = icmp samesign ult i8 %19, -16
  br i1 %32, label %33, label %42

33:                                               ; preds = %31
  %34 = mul i8 %19, -95
  %35 = getelementptr i8, ptr %.03039, i64 1
  %36 = load i8, ptr %35, align 1, !tbaa !7
  %37 = add i8 %36, %34
  %38 = mul i8 %37, -95
  %39 = getelementptr i8, ptr %.03039, i64 2
  %40 = load i8, ptr %39, align 1, !tbaa !7
  %41 = add i8 %38, %40
  br label %59

42:                                               ; preds = %31
  %43 = icmp samesign ult i8 %19, -11
  br i1 %43, label %44, label %57

44:                                               ; preds = %42
  %45 = mul i8 %19, -95
  %46 = getelementptr i8, ptr %.03039, i64 1
  %47 = load i8, ptr %46, align 1, !tbaa !7
  %48 = add i8 %47, %45
  %49 = mul i8 %48, -95
  %50 = getelementptr i8, ptr %.03039, i64 2
  %51 = load i8, ptr %50, align 1, !tbaa !7
  %52 = add i8 %49, %51
  %53 = mul i8 %52, -95
  %54 = getelementptr i8, ptr %.03039, i64 3
  %55 = load i8, ptr %54, align 1, !tbaa !7
  %56 = add i8 %53, %55
  br label %59

57:                                               ; preds = %42
  %58 = or disjoint i32 %20, 256
  br label %rb_memsearch_qs_utf8_hash.exit

59:                                               ; preds = %44, %33, %26
  %.0.i = phi i8 [ %30, %26 ], [ %41, %33 ], [ %56, %44 ]
  %60 = zext i8 %.0.i to i32
  br label %rb_memsearch_qs_utf8_hash.exit

rb_memsearch_qs_utf8_hash.exit:                   ; preds = %22, %57, %59
  %.026.i = phi i32 [ %23, %22 ], [ %60, %59 ], [ %58, %57 ]
  %61 = zext nneg i32 %.026.i to i64
  %62 = getelementptr [512 x i64], ptr %5, i64 0, i64 %61
  store i64 %18, ptr %62, align 8, !tbaa !18
  %63 = getelementptr i8, ptr %.03039, i64 1
  %exitcond45.not = icmp eq ptr %63, %7
  br i1 %exitcond45.not, label %.preheader, label %16, !llvm.loop !24

64:                                               ; preds = %.lr.ph43, %rb_memsearch_qs_utf8_hash.exit35
  %65 = phi ptr [ %14, %.lr.ph43 ], [ %121, %rb_memsearch_qs_utf8_hash.exit35 ]
  %.02842 = phi ptr [ %2, %.lr.ph43 ], [ %120, %rb_memsearch_qs_utf8_hash.exit35 ]
  %66 = load i8, ptr %.02842, align 1, !tbaa !7
  %67 = icmp eq i8 %15, %66
  br i1 %67, label %68, label %74

68:                                               ; preds = %64
  %bcmp = tail call i32 @bcmp(ptr noundef nonnull dereferenceable(1) %0, ptr noundef nonnull dereferenceable(1) %.02842, i64 %1)
  %69 = icmp eq i32 %bcmp, 0
  br i1 %69, label %70, label %74

70:                                               ; preds = %68
  %71 = ptrtoint ptr %.02842 to i64
  %72 = ptrtoint ptr %2 to i64
  %73 = sub i64 %71, %72
  br label %.loopexit

74:                                               ; preds = %64, %68
  %75 = load i8, ptr %65, align 1, !tbaa !7
  %76 = zext i8 %75 to i32
  %77 = icmp ult i8 %75, -64
  br i1 %77, label %78, label %80

78:                                               ; preds = %74
  %79 = or disjoint i32 %76, 256
  br label %rb_memsearch_qs_utf8_hash.exit35

80:                                               ; preds = %74
  %81 = icmp samesign ult i8 %75, -32
  br i1 %81, label %82, label %87

82:                                               ; preds = %80
  %83 = mul i8 %75, -95
  %84 = getelementptr i8, ptr %65, i64 1
  %85 = load i8, ptr %84, align 1, !tbaa !7
  %86 = add i8 %85, %83
  br label %115

87:                                               ; preds = %80
  %88 = icmp samesign ult i8 %75, -16
  br i1 %88, label %89, label %98

89:                                               ; preds = %87
  %90 = mul i8 %75, -95
  %91 = getelementptr i8, ptr %65, i64 1
  %92 = load i8, ptr %91, align 1, !tbaa !7
  %93 = add i8 %92, %90
  %94 = mul i8 %93, -95
  %95 = getelementptr i8, ptr %65, i64 2
  %96 = load i8, ptr %95, align 1, !tbaa !7
  %97 = add i8 %94, %96
  br label %115

98:                                               ; preds = %87
  %99 = icmp samesign ult i8 %75, -11
  br i1 %99, label %100, label %113

100:                                              ; preds = %98
  %101 = mul i8 %75, -95
  %102 = getelementptr i8, ptr %65, i64 1
  %103 = load i8, ptr %102, align 1, !tbaa !7
  %104 = add i8 %103, %101
  %105 = mul i8 %104, -95
  %106 = getelementptr i8, ptr %65, i64 2
  %107 = load i8, ptr %106, align 1, !tbaa !7
  %108 = add i8 %105, %107
  %109 = mul i8 %108, -95
  %110 = getelementptr i8, ptr %65, i64 3
  %111 = load i8, ptr %110, align 1, !tbaa !7
  %112 = add i8 %109, %111
  br label %115

113:                                              ; preds = %98
  %114 = or disjoint i32 %76, 256
  br label %rb_memsearch_qs_utf8_hash.exit35

115:                                              ; preds = %100, %89, %82
  %.0.i34 = phi i8 [ %86, %82 ], [ %97, %89 ], [ %112, %100 ]
  %116 = zext i8 %.0.i34 to i32
  br label %rb_memsearch_qs_utf8_hash.exit35

rb_memsearch_qs_utf8_hash.exit35:                 ; preds = %78, %113, %115
  %.026.i33 = phi i32 [ %79, %78 ], [ %116, %115 ], [ %114, %113 ]
  %117 = zext nneg i32 %.026.i33 to i64
  %118 = getelementptr [512 x i64], ptr %5, i64 0, i64 %117
  %119 = load i64, ptr %118, align 8, !tbaa !18
  %120 = getelementptr i8, ptr %.02842, i64 %119
  %121 = getelementptr i8, ptr %120, i64 %1
  %.not = icmp ugt ptr %121, %13
  br i1 %.not, label %.loopexit, label %64, !llvm.loop !25

.loopexit:                                        ; preds = %rb_memsearch_qs_utf8_hash.exit35, %.preheader, %70
  %.029 = phi i64 [ %73, %70 ], [ -1, %.preheader ], [ -1, %rb_memsearch_qs_utf8_hash.exit35 ]
  call void @llvm.lifetime.end.p0(i64 4096, ptr nonnull %5) #29
  ret i64 %.029
}